; Function Attrs: mustprogress nofree norecurse nosync nounwind willreturn memory(readwrite, inaccessiblemem: none) uwtable
define void @_ZN7rocksdb10Compaction24ResetNextCompactionIndexEv(ptr nocapture noundef nonnull readonly align 16 dereferenceable(4788) %this) local_unnamed_addr #13 align 2 {
entry:
  %0 = load ptr, ptr %this, align 16
  %start_level_ = getelementptr inbounds i8, ptr %this, i64 8
  %1 = load i32, ptr %start_level_, align 8
  %next_file_to_compact_by_size_.i = getelementptr inbounds i8, ptr %0, i64 2848
  %conv.i = sext i32 %1 to i64
  %2 = load ptr, ptr %next_file_to_compact_by_size_.i, align 8
  %add.ptr.i.i = getelementptr inbounds i32, ptr %2, i64 %conv.i
  store i32 0, ptr %add.ptr.i.i, align 4
  ret void
}